; Function Attrs: mustprogress uwtable
define void @_Z22grpc_set_socket_rcvbufii(ptr noalias nocapture writeonly sret(%"class.absl::lts_20230802::Status") align 8 %agg.result, i32 noundef %fd, i32 noundef %buffer_size_bytes) local_unnamed_addr #3 personality ptr @__gxx_personality_v0 {
entry:
  %buffer_size_bytes.addr = alloca i32, align 4
  %agg.tmp = alloca %"class.absl::lts_20230802::Status", align 8
  %ref.tmp = alloca %"class.grpc_core::DebugLocation", align 1
  store i32 %buffer_size_bytes, ptr %buffer_size_bytes.addr, align 4
  %call = call i32 @setsockopt(i32 noundef %fd, i32 noundef 1, i32 noundef 8, ptr noundef nonnull %buffer_size_bytes.addr, i32 noundef 4) #16
  %cmp.not = icmp eq i32 %call, 0
  br i1 %cmp.not, label %cleanup.done, label %cond.false

cond.false:                                       ; preds = %entry
  %call1 = tail call ptr @__errno_location() #17
  %0 = load i32, ptr %call1, align 4
  call void @_Z13grpc_os_errorRKN9grpc_core13DebugLocationEiPKc(ptr nonnull sret(%"class.absl::lts_20230802::Status") align 8 %agg.tmp, ptr noundef nonnull align 1 dereferenceable(1) %ref.tmp, i32 noundef %0, ptr noundef nonnull @.str.6)
  %1 = load i64, ptr %agg.tmp, align 8, !noalias !25
  %cmp.i.i = icmp eq i64 %1, 0
  br i1 %cmp.i.i, label %if.then.i, label %cleanup.done

if.then.i:                                        ; preds = %cond.false
  invoke void @gpr_assertion_failed(ptr noundef nonnull @.str.29, i32 noundef 78, ptr noundef nonnull @.str.30) #18
          to label %.noexc unwind label %lpad

.noexc:                                           ; preds = %if.then.i
  unreachable

cleanup.done:                                     ; preds = %cond.false, %entry
  %.sink = phi i64 [ 0, %entry ], [ %1, %cond.false ]
  store i64 %.sink, ptr %agg.result, align 8
  ret void

lpad:                                             ; preds = %if.then.i
  %2 = landingpad { ptr, i32 }
          cleanup
  call void @_ZN4absl12lts_202308026StatusD2Ev(ptr noundef nonnull align 8 dereferenceable(8) %agg.tmp) #16
  resume { ptr, i32 } %2
}